target datalayout = "e-m:e-p270:32:32-p271:32:32-p272:64:64-i64:64-i128:128-f80:128-n8:16:32:64-S128"
target triple = "x86_64-pc-linux-gnu"

%"struct.llvm::rdf::RegisterRef" = type { i32, %"struct.llvm::LaneBitmask" }
%"struct.llvm::LaneBitmask" = type { i64 }
%"struct.llvm::rdf::Print" = type { ptr, ptr }
%"struct.llvm::rdf::DataFlowGraph" = type { %"class.std::unique_ptr", ptr, ptr, ptr, %"struct.llvm::rdf::PhysicalRegisterInfo", ptr, ptr, ptr, %"struct.llvm::rdf::RegisterAggr", %"struct.llvm::rdf::NodeAddr", %"struct.llvm::rdf::NodeAllocator", %"class.std::map", %"struct.llvm::rdf::LaneMaskIndex", %"struct.llvm::rdf::DataFlowGraph::Config", %"class.std::set", %"class.llvm::BitVector" }
%"class.std::unique_ptr" = type { %"struct.std::__uniq_ptr_data" }
%"struct.std::__uniq_ptr_data" = type { %"class.std::__uniq_ptr_impl" }
%"class.std::__uniq_ptr_impl" = type { %"class.std::tuple" }
%"class.std::tuple" = type { %"struct.std::_Tuple_impl" }
%"struct.std::_Tuple_impl" = type { %"struct.std::_Head_base.1" }
%"struct.std::_Head_base.1" = type { ptr }
%"struct.llvm::rdf::PhysicalRegisterInfo" = type { ptr, %"struct.llvm::rdf::IndexedSet", %"class.std::vector.2", %"class.std::vector.7", %"class.std::vector.12", %"class.std::vector.17" }
%"struct.llvm::rdf::IndexedSet" = type { %"class.std::vector" }
%"class.std::vector" = type { %"struct.std::_Vector_base" }
%"struct.std::_Vector_base" = type { %"struct.std::_Vector_base<const unsigned int *, std::allocator<const unsigned int *>>::_Vector_impl" }
%"struct.std::_Vector_base<const unsigned int *, std::allocator<const unsigned int *>>::_Vector_impl" = type { %"struct.std::_Vector_base<const unsigned int *, std::allocator<const unsigned int *>>::_Vector_impl_data" }
%"struct.std::_Vector_base<const unsigned int *, std::allocator<const unsigned int *>>::_Vector_impl_data" = type { ptr, ptr, ptr }
%"class.std::vector.2" = type { %"struct.std::_Vector_base.3" }
%"struct.std::_Vector_base.3" = type { %"struct.std::_Vector_base<llvm::rdf::PhysicalRegisterInfo::RegInfo, std::allocator<llvm::rdf::PhysicalRegisterInfo::RegInfo>>::_Vector_impl" }
%"struct.std::_Vector_base<llvm::rdf::PhysicalRegisterInfo::RegInfo, std::allocator<llvm::rdf::PhysicalRegisterInfo::RegInfo>>::_Vector_impl" = type { %"struct.std::_Vector_base<llvm::rdf::PhysicalRegisterInfo::RegInfo, std::allocator<llvm::rdf::PhysicalRegisterInfo::RegInfo>>::_Vector_impl_data" }
%"struct.std::_Vector_base<llvm::rdf::PhysicalRegisterInfo::RegInfo, std::allocator<llvm::rdf::PhysicalRegisterInfo::RegInfo>>::_Vector_impl_data" = type { ptr, ptr, ptr }
%"class.std::vector.7" = type { %"struct.std::_Vector_base.8" }
%"struct.std::_Vector_base.8" = type { %"struct.std::_Vector_base<llvm::rdf::PhysicalRegisterInfo::UnitInfo, std::allocator<llvm::rdf::PhysicalRegisterInfo::UnitInfo>>::_Vector_impl" }
%"struct.std::_Vector_base<llvm::rdf::PhysicalRegisterInfo::UnitInfo, std::allocator<llvm::rdf::PhysicalRegisterInfo::UnitInfo>>::_Vector_impl" = type { %"struct.std::_Vector_base<llvm::rdf::PhysicalRegisterInfo::UnitInfo, std::allocator<llvm::rdf::PhysicalRegisterInfo::UnitInfo>>::_Vector_impl_data" }
%"struct.std::_Vector_base<llvm::rdf::PhysicalRegisterInfo::UnitInfo, std::allocator<llvm::rdf::PhysicalRegisterInfo::UnitInfo>>::_Vector_impl_data" = type { ptr, ptr, ptr }
%"class.std::vector.12" = type { %"struct.std::_Vector_base.13" }
%"struct.std::_Vector_base.13" = type { %"struct.std::_Vector_base<llvm::rdf::PhysicalRegisterInfo::MaskInfo, std::allocator<llvm::rdf::PhysicalRegisterInfo::MaskInfo>>::_Vector_impl" }
%"struct.std::_Vector_base<llvm::rdf::PhysicalRegisterInfo::MaskInfo, std::allocator<llvm::rdf::PhysicalRegisterInfo::MaskInfo>>::_Vector_impl" = type { %"struct.std::_Vector_base<llvm::rdf::PhysicalRegisterInfo::MaskInfo, std::allocator<llvm::rdf::PhysicalRegisterInfo::MaskInfo>>::_Vector_impl_data" }
%"struct.std::_Vector_base<llvm::rdf::PhysicalRegisterInfo::MaskInfo, std::allocator<llvm::rdf::PhysicalRegisterInfo::MaskInfo>>::_Vector_impl_data" = type { ptr, ptr, ptr }
%"class.std::vector.17" = type { %"struct.std::_Vector_base.18" }
%"struct.std::_Vector_base.18" = type { %"struct.std::_Vector_base<llvm::rdf::PhysicalRegisterInfo::AliasInfo, std::allocator<llvm::rdf::PhysicalRegisterInfo::AliasInfo>>::_Vector_impl" }
%"struct.std::_Vector_base<llvm::rdf::PhysicalRegisterInfo::AliasInfo, std::allocator<llvm::rdf::PhysicalRegisterInfo::AliasInfo>>::_Vector_impl" = type { %"struct.std::_Vector_base<llvm::rdf::PhysicalRegisterInfo::AliasInfo, std::allocator<llvm::rdf::PhysicalRegisterInfo::AliasInfo>>::_Vector_impl_data" }
%"struct.std::_Vector_base<llvm::rdf::PhysicalRegisterInfo::AliasInfo, std::allocator<llvm::rdf::PhysicalRegisterInfo::AliasInfo>>::_Vector_impl_data" = type { ptr, ptr, ptr }
%"struct.llvm::rdf::RegisterAggr" = type { %"class.llvm::BitVector", ptr }
%"struct.llvm::rdf::NodeAddr" = type <{ ptr, i32, [4 x i8] }>
%"struct.llvm::rdf::NodeAllocator" = type { i32, i32, i32, ptr, %"class.std::vector.22", %"class.llvm::BumpPtrAllocatorImpl" }
%"class.std::vector.22" = type { %"struct.std::_Vector_base.23" }
%"struct.std::_Vector_base.23" = type { %"struct.std::_Vector_base<char *, std::allocator<char *>>::_Vector_impl" }
%"struct.std::_Vector_base<char *, std::allocator<char *>>::_Vector_impl" = type { %"struct.std::_Vector_base<char *, std::allocator<char *>>::_Vector_impl_data" }
%"struct.std::_Vector_base<char *, std::allocator<char *>>::_Vector_impl_data" = type { ptr, ptr, ptr }
%"class.llvm::BumpPtrAllocatorImpl" = type { ptr, ptr, %"class.llvm::SmallVector.28", %"class.llvm::SmallVector.33", i64, i64 }
%"class.llvm::SmallVector.28" = type { %"class.llvm::SmallVectorImpl.29", %"struct.llvm::SmallVectorStorage.32" }
%"class.llvm::SmallVectorImpl.29" = type { %"class.llvm::SmallVectorTemplateBase.30" }
%"class.llvm::SmallVectorTemplateBase.30" = type { %"class.llvm::SmallVectorTemplateCommon.31" }
%"class.llvm::SmallVectorTemplateCommon.31" = type { %"class.llvm::SmallVectorBase" }
%"class.llvm::SmallVectorBase" = type { ptr, i32, i32 }
%"struct.llvm::SmallVectorStorage.32" = type { [32 x i8] }
%"class.llvm::SmallVector.33" = type { %"class.llvm::SmallVectorImpl.34" }
%"class.llvm::SmallVectorImpl.34" = type { %"class.llvm::SmallVectorTemplateBase.35" }
%"class.llvm::SmallVectorTemplateBase.35" = type { %"class.llvm::SmallVectorTemplateCommon.36" }
%"class.llvm::SmallVectorTemplateCommon.36" = type { %"class.llvm::SmallVectorBase" }
%"class.std::map" = type { %"class.std::_Rb_tree" }
%"class.std::_Rb_tree" = type { %"struct.std::_Rb_tree<llvm::MachineBasicBlock *, std::pair<llvm::MachineBasicBlock *const, llvm::rdf::NodeAddr<llvm::rdf::BlockNode *>>, std::_Select1st<std::pair<llvm::MachineBasicBlock *const, llvm::rdf::NodeAddr<llvm::rdf::BlockNode *>>>, std::less<llvm::MachineBasicBlock *>>::_Rb_tree_impl" }
%"struct.std::_Rb_tree<llvm::MachineBasicBlock *, std::pair<llvm::MachineBasicBlock *const, llvm::rdf::NodeAddr<llvm::rdf::BlockNode *>>, std::_Select1st<std::pair<llvm::MachineBasicBlock *const, llvm::rdf::NodeAddr<llvm::rdf::BlockNode *>>>, std::less<llvm::MachineBasicBlock *>>::_Rb_tree_impl" = type { [8 x i8], %"struct.std::_Rb_tree_header" }
%"struct.std::_Rb_tree_header" = type { %"struct.std::_Rb_tree_node_base", i64 }
%"struct.std::_Rb_tree_node_base" = type { i32, ptr, ptr, ptr }
%"struct.llvm::rdf::LaneMaskIndex" = type { %"struct.llvm::rdf::IndexedSet.41" }
%"struct.llvm::rdf::IndexedSet.41" = type { %"class.std::vector.42" }
%"class.std::vector.42" = type { %"struct.std::_Vector_base.43" }
%"struct.std::_Vector_base.43" = type { %"struct.std::_Vector_base<llvm::LaneBitmask, std::allocator<llvm::LaneBitmask>>::_Vector_impl" }
%"struct.std::_Vector_base<llvm::LaneBitmask, std::allocator<llvm::LaneBitmask>>::_Vector_impl" = type { %"struct.std::_Vector_base<llvm::LaneBitmask, std::allocator<llvm::LaneBitmask>>::_Vector_impl_data" }
%"struct.std::_Vector_base<llvm::LaneBitmask, std::allocator<llvm::LaneBitmask>>::_Vector_impl_data" = type { ptr, ptr, ptr }
%"struct.llvm::rdf::DataFlowGraph::Config" = type { i32, %"class.llvm::SmallVector.47", %"class.std::set" }
%"class.llvm::SmallVector.47" = type { %"class.llvm::SmallVectorImpl.48", %"struct.llvm::SmallVectorStorage.51" }
%"class.llvm::SmallVectorImpl.48" = type { %"class.llvm::SmallVectorTemplateBase.49" }
%"class.llvm::SmallVectorTemplateBase.49" = type { %"class.llvm::SmallVectorTemplateCommon.50" }
%"class.llvm::SmallVectorTemplateCommon.50" = type { %"class.llvm::SmallVectorBase" }
%"struct.llvm::SmallVectorStorage.51" = type { [48 x i8] }
%"class.std::set" = type { %"class.std::_Rb_tree.52" }
%"class.std::_Rb_tree.52" = type { %"struct.std::_Rb_tree<unsigned int, unsigned int, std::_Identity<unsigned int>, std::less<unsigned int>>::_Rb_tree_impl" }
%"struct.std::_Rb_tree<unsigned int, unsigned int, std::_Identity<unsigned int>, std::less<unsigned int>>::_Rb_tree_impl" = type { [8 x i8], %"struct.std::_Rb_tree_header" }
%"class.llvm::BitVector" = type <{ %"class.llvm::SmallVector", i32, [4 x i8] }>
%"class.llvm::SmallVector" = type { %"class.llvm::SmallVectorImpl", %"struct.llvm::SmallVectorStorage" }
%"class.llvm::SmallVectorImpl" = type { %"class.llvm::SmallVectorTemplateBase" }
%"class.llvm::SmallVectorTemplateBase" = type { %"class.llvm::SmallVectorTemplateCommon" }
%"class.llvm::SmallVectorTemplateCommon" = type { %"class.llvm::SmallVectorBase" }
%"struct.llvm::SmallVectorStorage" = type { [48 x i8] }

; Function Attrs: mustprogress nounwind uwtable
define linkonce_odr hidden noundef nonnull align 8 dereferenceable(128) ptr @_ZNK4llvm3rdf13DataFlowGraph6getPRIEv(ptr noundef nonnull align 8 dereferenceable(736) %0) #0 comdat align 2 {
  %2 = alloca ptr, align 8
  store ptr %0, ptr %2, align 8
  %3 = load ptr, ptr %2, align 8
  %4 = getelementptr inbounds nuw %"struct.llvm::rdf::DataFlowGraph", ptr %3, i32 0, i32 4
  ret ptr %4
}

; Function Attrs: mustprogress nounwind uwtable
define dso_local noundef nonnull align 8 dereferenceable(48) ptr @_ZN4llvm3rdflsERNS_11raw_ostreamERKNS0_5PrintINS0_11RegisterRefEEE(ptr noundef nonnull align 8 dereferenceable(48) %0, ptr noundef nonnull align 8 dereferenceable(16) %1) #0 {
  %3 = alloca ptr, align 8
  %4 = alloca ptr, align 8
  %5 = alloca %"struct.llvm::rdf::RegisterRef", align 8
  store ptr %0, ptr %3, align 8
  store ptr %1, ptr %4, align 8
  %6 = load ptr, ptr %4, align 8
  %7 = getelementptr inbounds nuw %"struct.llvm::rdf::Print", ptr %6, i32 0, i32 1
  %8 = load ptr, ptr %7, align 8
  %9 = call noundef nonnull align 8 dereferenceable(128) ptr @_ZNK4llvm3rdf13DataFlowGraph6getPRIEv(ptr noundef nonnull align 8 dereferenceable(736) %8)
  %10 = load ptr, ptr %3, align 8
  %11 = load ptr, ptr %4, align 8
  %12 = getelementptr inbounds nuw %"struct.llvm::rdf::Print", ptr %11, i32 0, i32 0
  %13 = load ptr, ptr %12, align 8
  call void @llvm.memcpy.p0.p0.i64(ptr align 8 %5, ptr align 8 %13, i64 16, i1 false)
  %14 = getelementptr inbounds nuw { i32, i64 }, ptr %5, i32 0, i32 0
  %15 = load i32, ptr %14, align 8
  %16 = getelementptr inbounds nuw { i32, i64 }, ptr %5, i32 0, i32 1
  %17 = load i64, ptr %16, align 8
  call void @_ZNK4llvm3rdf20PhysicalRegisterInfo5printERNS_11raw_ostreamENS0_11RegisterRefE(ptr noundef nonnull align 8 dereferenceable(128) %9, ptr noundef nonnull align 8 dereferenceable(48) %10, i32 %15, i64 %17)
  %18 = load ptr, ptr %3, align 8
  ret ptr %18
}