; Function Attrs: mustprogress nounwind uwtable
define dso_local noundef nonnull align 8 dereferenceable(48) ptr @_ZN4llvm3rdflsERNS_11raw_ostreamERKNS0_5PrintINS0_11RegisterRefEEE(ptr noundef nonnull returned align 8 dereferenceable(48) %0, ptr noundef nonnull readonly align 8 captures(none) dereferenceable(16) %1) local_unnamed_addr #0 {
  %3 = getelementptr inbounds nuw i8, ptr %1, i64 8
  %4 = load ptr, ptr %3, align 8
  %5 = getelementptr inbounds nuw i8, ptr %4, i64 32
  %6 = load ptr, ptr %1, align 8
  %.sroa.0.0.copyload = load i32, ptr %6, align 8
  %.sroa.21.0..sroa_idx = getelementptr inbounds nuw i8, ptr %6, i64 8
  %.sroa.21.0.copyload = load i64, ptr %.sroa.21.0..sroa_idx, align 8
  tail call void @_ZNK4llvm3rdf20PhysicalRegisterInfo5printERNS_11raw_ostreamENS0_11RegisterRefE(ptr noundef nonnull align 8 dereferenceable(128) %5, ptr noundef nonnull align 8 dereferenceable(48) %0, i32 %.sroa.0.0.copyload, i64 %.sroa.21.0.copyload) #22
  ret ptr %0
}